ccollections
OrderedDict
p1
((lp2
(lp3
S'eos'
p4
aI0
aa(lp5
S'UNK'
p6
aI1
aa(lp7
S' '
aI2
aa(lp8
S'e'
aI3
aa(lp9
S'n'
aI4
aa(lp10
S't'
aI5
aa(lp11
S'a'
aI6
aa(lp12
S'o'
aI7
aa(lp13
S'i'
aI8
aa(lp14
S's'
aI9
aa(lp15
S'r'
aI10
aa(lp16
S'h'
aI11
aa(lp17
S'l'
aI12
aa(lp18
S'u'
aI13
aa(lp19
S'd'
aI14
aa(lp20
S'c'
aI15
aa(lp21
S'm'
aI16
aa(lp22
S'f'
aI17
aa(lp23
S'p'
aI18
aa(lp24
S'k'
aI19
aa(lp25
S'g'
aI20
aa(lp26
S'y'
aI21
aa(lp27
S'b'
aI22
aa(lp28
S'w'
aI23
aa(lp29
S'>'
aI24
aa(lp30
S'<'
aI25
aa(lp31
S'v'
aI26
aa(lp32
S'.'
aI27
aa(lp33
S"'"
aI28
aa(lp34
S'x'
aI29
aa(lp35
S'j'
aI30
aa(lp36
S'$'
aI31
aa(lp37
S'-'
aI32
aa(lp38
S'q'
aI33
aa(lp39
S'z'
aI34
aa(lp40
S'&'
aI35
aa(lp41
S'0'
aI36
aa(lp42
S'1'
aI37
aa(lp43
S'9'
aI38
aa(lp44
S'3'
aI39
aa(lp45
S'#'
aI40
aa(lp46
S'2'
aI41
aa(lp47
S'8'
aI42
aa(lp48
S'5'
aI43
aa(lp49
S'\\'
aI44
aa(lp50
S'7'
aI45
aa(lp51
S'6'
aI46
aa(lp52
S'4'
aI47
aa(lp53
S'/'
aI48
aa(lp54
S'*'
aI49
aatRp55
.